; Function Attrs: nounwind sspstrong uwtable
define internal noundef i64 @slicebefore_i(i64 noundef %0, i64 noundef %1, i32 %2, ptr readnone captures(none) %3, i64 %4) #0 {
  %6 = tail call i64 @rb_ary_hidden_new_fill(i64 noundef 4) #14
  tail call void @rb_gc_writebarrier_unprotect(i64 noundef %6) #14
  %7 = inttoptr i64 %6 to ptr
  %8 = load i64, ptr %7, align 8, !tbaa !20
  %9 = and i64 %8, 8192
  %.not.i.i = icmp eq i64 %9, 0
  br i1 %.not.i.i, label %12, label %10

10:                                               ; preds = %5
  %11 = getelementptr inbounds nuw i8, ptr %7, i64 16
  br label %RARRAY_PTR.exit

12:                                               ; preds = %5
  %13 = getelementptr inbounds nuw i8, ptr %7, i64 32
  %14 = load ptr, ptr %13, align 8, !tbaa !22
  br label %RARRAY_PTR.exit

RARRAY_PTR.exit:                                  ; preds = %10, %12
  %.0.i.i = phi ptr [ %11, %10 ], [ %14, %12 ]
  %15 = load i64, ptr @id_slicebefore_enumerable, align 8, !tbaa !7
  %16 = tail call i64 @rb_ivar_get(i64 noundef %1, i64 noundef %15) #14
  %17 = load i64, ptr @id_slicebefore_sep_pred, align 8, !tbaa !7
  %18 = tail call i64 @rb_attr_get(i64 noundef %1, i64 noundef %17) #14
  store i64 %18, ptr %.0.i.i, align 8, !tbaa !129
  %19 = icmp eq i64 %18, 4
  br i1 %19, label %20, label %23

20:                                               ; preds = %RARRAY_PTR.exit
  %21 = load i64, ptr @id_slicebefore_sep_pat, align 8, !tbaa !7
  %22 = tail call i64 @rb_ivar_get(i64 noundef %1, i64 noundef %21) #14
  br label %23

23:                                               ; preds = %RARRAY_PTR.exit, %20
  %24 = phi i64 [ %22, %20 ], [ 4, %RARRAY_PTR.exit ]
  %25 = getelementptr inbounds nuw i8, ptr %.0.i.i, i64 8
  store i64 %24, ptr %25, align 8, !tbaa !131
  %26 = getelementptr inbounds nuw i8, ptr %.0.i.i, i64 16
  store i64 4, ptr %26, align 8, !tbaa !132
  %27 = getelementptr inbounds nuw i8, ptr %.0.i.i, i64 24
  store i64 %0, ptr %27, align 8, !tbaa !133
  %28 = tail call i64 @rb_block_call(i64 noundef %16, i64 noundef 3073, i32 noundef 0, ptr noundef null, ptr noundef nonnull @slicebefore_ii, i64 noundef %6) #14
  tail call void @rb_gc_writebarrier_unprotect(i64 noundef %6) #14
  %29 = load i64, ptr %7, align 8, !tbaa !20
  %30 = and i64 %29, 8192
  %.not.i.i15 = icmp eq i64 %30, 0
  br i1 %.not.i.i15, label %33, label %31

31:                                               ; preds = %23
  %32 = getelementptr inbounds nuw i8, ptr %7, i64 16
  br label %RARRAY_PTR.exit17

33:                                               ; preds = %23
  %34 = getelementptr inbounds nuw i8, ptr %7, i64 32
  %35 = load ptr, ptr %34, align 8, !tbaa !22
  br label %RARRAY_PTR.exit17

RARRAY_PTR.exit17:                                ; preds = %31, %33
  %.0.i.i16 = phi ptr [ %32, %31 ], [ %35, %33 ]
  %36 = getelementptr inbounds nuw i8, ptr %.0.i.i16, i64 16
  %37 = load i64, ptr %36, align 8, !tbaa !132
  %38 = icmp eq i64 %37, 4
  br i1 %38, label %43, label %39

39:                                               ; preds = %RARRAY_PTR.exit17
  %40 = getelementptr inbounds nuw i8, ptr %.0.i.i16, i64 24
  %41 = load i64, ptr %40, align 8, !tbaa !133
  %42 = tail call i64 @rb_funcallv(i64 noundef %41, i64 noundef 136, i32 noundef 1, ptr noundef nonnull %36) #14
  br label %43

43:                                               ; preds = %39, %RARRAY_PTR.exit17
  ret i64 4
}